#include <math.h>
#include <stdio.h>
#include <stdlib.h>
#include <string.h>

void main()
{
	int i,j;
	int m,n;
	int temp;
	int a[1000];
	int b[1000];
	scanf("%d %d",&m,&n);
	for(i=0;i<m;i++)
        scanf("%d",&a[i]);
	for(i=0;i<n;i++)
		scanf("%d",&b[i]);

	for(j=0;j<m-1;j++){
		for(i=0;i<m-1-j;i++){
			if(a[i]>a[i+1])
			{
				temp=a[i];
				a[i]=a[i+1];
				a[i+1]=temp;
			}
		}
	}
	for(j=0;j<n-1;j++){
		for(i=0;i<n-1-j;i++){
			if(b[i]>b[i+1])
			{
				temp=b[i];
				b[i]=b[i+1];
				b[i+1]=temp;
			}
		}
	}

	for(i=0;i<m;i++)
	printf("%d ",a[i]);
	for(i=0;i<n-1;i++)
	printf("%d ",b[i]);
	printf("%d",b[n-1]);
}




